ccopy_reg
_reconstructor
p1
(cfoobnix.fc.fc_base
FCBase
p2
c__builtin__
object
p3
NtRp4
(dp5
S'lfm_password'
p6
S'l_pass_'
p7
sS'vk_login'
p8
S'fatemail1993@gmail.com'
p9
sS'vk_password'
p10
S'931782931782adgjl931782931782'
p11
sS'uuid'
p12
S'00486222976e4d8d936eaca33d3194df'
p13
sS'vk_remember_password'
p14
I01
sS'lfm_login'
p15
S'l_user_'
p16
sb.