ccopy_reg
_reconstructor
p1
(cfoobnix.fc.fc
FC
p2
c__builtin__
object
p3
NtRp4
(dp5
S'is_view_coverlyrics_panel'
p6
I01
sS'is_save_online'
p7
I01
sS'check_new_version'
p8
I01
sS'last_dir'
p9
NsS'enable_music_scrobbler'
p10
I01
sS'main_window_size'
p11
(lp12
I297
aI167
aI906
aI479
asS'on_close_window'
p13
S'ON_CLOSE_HIDE'
p14
sS'columns'
p15
(dp16
S'Album'
p17
(lp18
I00
aI7
aI90
asS'Time'
p19
(lp20
I01
aI3
aI52
asS'Title'
p21
(lp22
I00
aI6
aI70
asS'Track'
p23
(lp24
I01
aI2
aI323
asS'*'
(lp25
I01
aI0
aI34
asS'\xe2\x84\x96'
p26
(lp27
I01
aI1
aI24
asS'Composer'
p28
(lp29
I00
aI4
aI80
asS'Artist'
p30
(lp31
I00
aI5
aI90
assS'antiscreensaver'
p32
I00
sS'proxy_enable'
p33
I00
sS'order_repeat_style'
p34
S'ToggleButtons'
p35
sS'tab_close_element'
p36
S'button'
p37
sS'search_limit'
p38
F50
sS'notifier'
p39
I01
sS'menu_style'
p40
S'old'
p41
sS'play_icon_entry'
p42
S'foobnix-play.png'
p43
sS'proxy_password'
p44
NsS'radio_icon_entry'
p45
S'foobnix-radio.jpg'
p46
sS'background_image'
p47
NsS'enable_radio_scrobbler'
p48
I01
sS'media_volume_keys'
p49
(dp50
S'foobnix --volume-up'
p51
S'XF86AudioRaiseVolume'
p52
sS'foobnix --mute'
p53
S'XF86AudioMute'
p54
sS'foobnix --volume-down'
p55
S'XF86AudioLowerVolume'
p56
ssS'count_of_tabs'
p57
I5
sS'is_eq_enable'
p58
I00
sS'virtual_selected_paths'
p59
(lp60
sS'nav_selected_paths'
p61
(lp62
sS'virtual_expand_paths'
p63
(lp64
sS'stop_icon_entry'
p65
S'foobnix-stop.png'
p66
sS'update_tree_on_start'
p67
I01
sS'static_tray_icon'
p68
I00
sS'hpaned_left'
p69
I340
sS'is_view_music_tree_panel'
p70
I01
sS'active_manager'
p71
(lp72
I2
aS'dolphin'
p73
asS'eq_presets_default'
p74
S'CUSTOM'
p75
sS'agent_line'
p76
S'Mozilla/5.0 (X11; U; Linux x86_64; en-US; rv:1.3.1.3) Gecko/20030313 Firefox/3.5.3'
p77
sS'proxy_user'
p78
NsS'is_view_info_panel'
p79
I01
sS'change_tray_icon'
p80
I00
sS'pl_selected_tab'
p81
I0
sS'nosubfolder'
p82
I00
sS'hpaned_right_right_side_width'
p83
I174
sS'multimedia_keys'
p84
(dp85
S'foobnix --stop'
p86
S'XF86AudioStop'
p87
sg51
g52
sg55
g56
sS'foobnix --play-pause'
p88
S'XF86AudioPlay'
p89
sS'foobnix --prev'
p90
S'XF86AudioPrev'
p91
sg53
g54
sS'foobnix --next'
p92
S'XF86AudioNext'
p93
ssS'background_image_themes'
p94
(lp95
S'theme/cat.jpg'
p96
aS'theme/flower.jpg'
p97
aS'theme/winter.jpg'
p98
asS'is_view_lyric_panel'
p99
I01
sS'system_icons_dinamic'
p100
I01
sS'file_managers'
p101
(lp102
S'nautilus'
p103
aS'dolphin'
p104
aS'konqueror'
p105
aS'thunar'
p106
aS'pcmanfm'
p107
aS'krusader'
p108
aS'explorer'
p109
asS'numbering_by_order'
p110
I01
sS'is_order_random'
p111
I00
sS'nav_expand_paths'
p112
(lp113
sS'all_support_formats'
p114
(lp115
S'.3g2'
p116
aS'.3gp'
p117
aS'.aac'
p118
aS'.ac3'
p119
aS'.aiff'
p120
aS'.ape'
p121
aS'.asf'
p122
aS'.asx'
p123
aS'.au'
p124
aS'.avi'
p125
aS'.cue'
p126
aS'.flac'
p127
aS'.flv'
p128
aS'.iso.wv'
p129
aS'.m3u'
p130
aS'.m4a'
p131
aS'.m4p'
p132
aS'.m4v'
p133
aS'.mkv'
p134
aS'.mov'
p135
aS'.mp3'
p136
aS'.mp4'
p137
aS'.mpc'
p138
aS'.mpg'
p139
aS'.ogg'
p140
aS'.ra'
p141
aS'.raw'
p142
aS'.rm'
p143
aS'.shn'
p144
aS'.swf'
p145
aS'.vob'
p146
aS'.wav'
p147
aS'.wma'
p148
aS'.wmv'
p149
aS'.wv'
p150
asS'user_id'
p151
S'104809'
p152
sS'auto_start_donwload'
p153
I01
sS'video_formats'
p154
(lp155
S'.3g2'
p156
aS'.3gp'
p157
aS'.asf'
p158
aS'.asx'
p159
aS'.avi'
p160
aS'.flv'
p161
aS'.mov'
p162
aS'.mpg'
p163
aS'.rm'
p164
aS'.swf'
p165
aS'.vob'
p166
aS'.wmv'
p167
aS'.mkv'
p168
aS'.m4v'
p169
aS'.mp4'
p170
asS'window_maximized'
p171
I00
sS'vpaned_small'
p172
I100
sS'show_tray_icon'
p173
I01
sS'radio_selected_paths'
p174
(lp175
sS'volume'
p176
F4.0462427745664744
sS'media_keys_enabled'
p177
I01
sS'is_view_search_panel'
p178
I01
sS'gap_secs'
p179
F0
sS'access_token'
p180
S'07d7fa17b34e5feb33a41d4e83015e61e6cf17a143f333812cde42f547ac0897db4daecd65eae2db3382d'
p181
sS'proxy_url'
p182
NsS'hide_on_start'
p183
I01
sS'temp_volume'
p184
I10
sS'nav_selected_tab'
p185
I0
sS'automatic_online_save'
p186
I00
sS'media_volume_keys_enabled'
p187
I00
sS'hpaned_right'
p188
I732
sS'online_save_to_folder'
p189
S'/tmp'
p190
sS'is_my_radio_active'
p191
I00
sS'tab_position'
p192
S'top'
p193
sS'playlist_type'
p194
S'PLAYLIST_TREE'
p195
sS'audio_formats'
p196
(lp197
S'.mp3'
p198
aS'.m3u'
p199
aS'.ogg'
p200
aS'.ape'
p201
aS'.flac'
p202
aS'.wma'
p203
aS'.mpc'
p204
aS'.aiff'
p205
aS'.raw'
p206
aS'.au'
p207
aS'.aac'
p208
aS'.ac3'
p209
aS'.m4a'
p210
aS'.ra'
p211
aS'.m4p'
p212
aS'.wv'
p213
aS'.shn'
p214
aS'.wav'
p215
asS'eq_presets'
p216
NsS'show_full_filename'
p217
I00
sS'action_hotkey'
p218
(dp219
S'foobnix --volume-up'
p220
S'<SUPER>Up'
p221
sS'foobnix --volume-down'
p222
S'<SUPER>Down'
p223
sS'foobnix --play-pause'
p224
S'<SUPER>z'
p225
sS'foobnix --show-hide'
p226
S'<SUPER>a'
p227
sS'foobnix --prev'
p228
S'<SUPER>Left'
p229
sS'foobnix --play'
p230
S'<SUPER>x'
p231
sS'foobnix --next'
p232
S'<SUPER>Right'
p233
ssS'radio_expand_paths'
p234
(lp235
sS'is_info_panel_show_tags'
p236
I00
sS'info_panel_image_size'
p237
I150
sS'all_icons'
p238
(lp239
S'foobnix.png'
p240
aS'foobnix-play.png'
p241
aS'foobnix-pause.png'
p242
aS'foobnix-stop.png'
p243
aS'foobnix-radio.jpg'
p244
aS'foobnix-tux.gif'
p245
asS'repeat_state'
p246
S'REPEAT_ALL'
p247
sS'is_view_video_panel'
p248
I00
sS'len_of_tab'
p249
I30
sS'static_icon_entry'
p250
S'foobnix.png'
p251
sS'tabs_mode'
p252
S'Multi'
p253
sS'net_ping'
p254
I01
sS'left_perspective'
p255
S'navigation'
p256
sS'tooltip_image_size'
p257
I150
sS'window_opacity'
p258
F1
sS'pause_icon_entry'
p259
S'foobnix-pause.png'
p260
sS'amount_dm_threads'
p261
I3
sS'notify_time'
p262
I3000
sb.